target datalayout = "e-m:e-p270:32:32-p271:32:32-p272:64:64-i64:64-i128:128-f80:128-n8:16:32:64-S128"
target triple = "x86_64-pc-linux-gnu"

%"struct.nanobind::detail::arg_data" = type { ptr, ptr, ptr, ptr, i8 }
%struct._object = type { i64, ptr }
%struct.PyVarObject = type { %struct._object, i64 }
%"struct.nanobind::detail::func_data_prelim" = type { [3 x ptr], ptr, ptr, ptr, ptr, i32, i16, i16, ptr, ptr, ptr, [0 x %"struct.nanobind::detail::arg_data"] }
%"struct.nanobind::detail::func_data" = type { %"struct.nanobind::detail::func_data_prelim", ptr, ptr }
%"struct.nanobind::detail::nb_internals" = type { ptr, ptr, ptr, ptr, ptr, ptr, %"struct.nanobind::detail::nb_maybe_atomic", ptr, i8, %"struct.nanobind::detail::nb_maybe_atomic", [1 x %"struct.nanobind::detail::nb_shard"], %"class.tsl::robin_map.0", %"class.tsl::robin_map.10", %"class.tsl::robin_map", %"struct.nanobind::detail::nb_translator_seq", i8, i8, ptr, i64 }
%"struct.nanobind::detail::nb_maybe_atomic" = type { ptr }
%"struct.nanobind::detail::nb_shard" = type { %"class.tsl::robin_map", %"class.tsl::robin_map" }
%"class.tsl::robin_map.0" = type { %"class.tsl::detail_robin_hash::robin_hash.1" }
%"class.tsl::detail_robin_hash::robin_hash.1" = type <{ %"class.tsl::rh::power_of_two_growth_policy", %"class.std::vector.4", ptr, i64, i64, i64, float, float, i8, i8, [6 x i8] }>
%"class.tsl::rh::power_of_two_growth_policy" = type { i64 }
%"class.std::vector.4" = type { %"struct.std::_Vector_base.5" }
%"struct.std::_Vector_base.5" = type { %"struct.std::_Vector_base<tsl::detail_robin_hash::bucket_entry<std::pair<const std::type_info *, nanobind::detail::type_data *>, true>, std::allocator<tsl::detail_robin_hash::bucket_entry<std::pair<const std::type_info *, nanobind::detail::type_data *>, true>>>::_Vector_impl" }
%"struct.std::_Vector_base<tsl::detail_robin_hash::bucket_entry<std::pair<const std::type_info *, nanobind::detail::type_data *>, true>, std::allocator<tsl::detail_robin_hash::bucket_entry<std::pair<const std::type_info *, nanobind::detail::type_data *>, true>>>::_Vector_impl" = type { %"struct.std::_Vector_base<tsl::detail_robin_hash::bucket_entry<std::pair<const std::type_info *, nanobind::detail::type_data *>, true>, std::allocator<tsl::detail_robin_hash::bucket_entry<std::pair<const std::type_info *, nanobind::detail::type_data *>, true>>>::_Vector_impl_data" }
%"struct.std::_Vector_base<tsl::detail_robin_hash::bucket_entry<std::pair<const std::type_info *, nanobind::detail::type_data *>, true>, std::allocator<tsl::detail_robin_hash::bucket_entry<std::pair<const std::type_info *, nanobind::detail::type_data *>, true>>>::_Vector_impl_data" = type { ptr, ptr, ptr }
%"class.tsl::robin_map.10" = type { %"class.tsl::detail_robin_hash::robin_hash.11" }
%"class.tsl::detail_robin_hash::robin_hash.11" = type <{ %"class.tsl::rh::power_of_two_growth_policy", %"class.std::vector.4", ptr, i64, i64, i64, float, float, i8, i8, [6 x i8] }>
%"class.tsl::robin_map" = type { %"class.tsl::detail_robin_hash::robin_hash" }
%"class.tsl::detail_robin_hash::robin_hash" = type <{ %"class.tsl::rh::power_of_two_growth_policy", %"class.std::vector", ptr, i64, i64, i64, float, float, i8, i8, [6 x i8] }>
%"class.std::vector" = type { %"struct.std::_Vector_base" }
%"struct.std::_Vector_base" = type { %"struct.std::_Vector_base<tsl::detail_robin_hash::bucket_entry<std::pair<void *, void *>, true>, std::allocator<tsl::detail_robin_hash::bucket_entry<std::pair<void *, void *>, true>>>::_Vector_impl" }
%"struct.std::_Vector_base<tsl::detail_robin_hash::bucket_entry<std::pair<void *, void *>, true>, std::allocator<tsl::detail_robin_hash::bucket_entry<std::pair<void *, void *>, true>>>::_Vector_impl" = type { %"struct.std::_Vector_base<tsl::detail_robin_hash::bucket_entry<std::pair<void *, void *>, true>, std::allocator<tsl::detail_robin_hash::bucket_entry<std::pair<void *, void *>, true>>>::_Vector_impl_data" }
%"struct.std::_Vector_base<tsl::detail_robin_hash::bucket_entry<std::pair<void *, void *>, true>, std::allocator<tsl::detail_robin_hash::bucket_entry<std::pair<void *, void *>, true>>>::_Vector_impl_data" = type { ptr, ptr, ptr }
%"struct.nanobind::detail::nb_translator_seq" = type { ptr, ptr, ptr }

@_ZN8nanobind6detail9internalsE = external hidden global ptr, align 8

; Function Attrs: inlinehint mustprogress nounwind uwtable
define linkonce_odr hidden noundef i64 @_Z6fmix64m(i64 noundef %0) #12 comdat {
  %2 = alloca i64, align 8
  store i64 %0, ptr %2, align 8
  %3 = load i64, ptr %2, align 8
  %4 = lshr i64 %3, 33
  %5 = load i64, ptr %2, align 8
  %6 = xor i64 %5, %4
  store i64 %6, ptr %2, align 8
  %7 = load i64, ptr %2, align 8
  %8 = mul i64 %7, -49064778989728563
  store i64 %8, ptr %2, align 8
  %9 = load i64, ptr %2, align 8
  %10 = lshr i64 %9, 33
  %11 = load i64, ptr %2, align 8
  %12 = xor i64 %11, %10
  store i64 %12, ptr %2, align 8
  %13 = load i64, ptr %2, align 8
  %14 = mul i64 %13, -4265267296055464877
  store i64 %14, ptr %2, align 8
  %15 = load i64, ptr %2, align 8
  %16 = lshr i64 %15, 33
  %17 = load i64, ptr %2, align 8
  %18 = xor i64 %17, %16
  store i64 %18, ptr %2, align 8
  %19 = load i64, ptr %2, align 8
  ret i64 %19
}

; Function Attrs: mustprogress uwtable
define linkonce_odr hidden noundef i64 @_ZNK8nanobind6detail8ptr_hashclEPKv(ptr noundef nonnull align 1 dereferenceable(1) %0, ptr noundef %1) #0 comdat align 2 {
  %3 = alloca ptr, align 8
  %4 = alloca ptr, align 8
  store ptr %0, ptr %3, align 8
  store ptr %1, ptr %4, align 8
  %5 = load ptr, ptr %4, align 8
  %6 = ptrtoint ptr %5 to i64
  %7 = call noundef i64 @_Z6fmix64m(i64 noundef %6)
  ret i64 %7
}

; Function Attrs: mustprogress uwtable
define linkonce_odr hidden noundef i64 @_ZNK3tsl17detail_robin_hash10robin_hashISt4pairIPvS3_ENS_9robin_mapIS3_S3_N8nanobind6detail8ptr_hashESt8equal_toIS3_ESaIS4_ELb0ENS_2rh26power_of_two_growth_policyILm2EEEE9KeySelectENSF_11ValueSelectES8_SA_SB_Lb0ESE_E8hash_keyIS3_EEmRKT_(ptr noundef nonnull align 8 dereferenceable(74) %0, ptr noundef nonnull align 8 dereferenceable(8) %1) #0 comdat align 2 {
  %3 = alloca ptr, align 8
  %4 = alloca ptr, align 8
  store ptr %0, ptr %3, align 8
  store ptr %1, ptr %4, align 8
  %5 = load ptr, ptr %3, align 8
  %6 = load ptr, ptr %4, align 8
  %7 = load ptr, ptr %6, align 8
  %8 = call noundef i64 @_ZNK8nanobind6detail8ptr_hashclEPKv(ptr noundef nonnull align 1 dereferenceable(1) %5, ptr noundef %7)
  ret i64 %8
}

; Function Attrs: inlinehint mustprogress uwtable
define internal void @_ZL10_Py_DECREFP7_object(ptr noundef %0) #3 {
  %2 = alloca ptr, align 8
  store ptr %0, ptr %2, align 8
  %3 = load ptr, ptr %2, align 8
  %4 = getelementptr inbounds nuw %struct._object, ptr %3, i32 0, i32 0
  %5 = load i64, ptr %4, align 8
  %6 = add nsw i64 %5, -1
  store i64 %6, ptr %4, align 8
  %7 = icmp ne i64 %6, 0
  br i1 %7, label %8, label %9

8:                                                ; preds = %1
  br label %11

9:                                                ; preds = %1
  %10 = load ptr, ptr %2, align 8
  call void @_Py_Dealloc(ptr noundef %10)
  br label %11

11:                                               ; preds = %9, %8
  ret void
}

; Function Attrs: mustprogress uwtable
define linkonce_odr hidden noundef i64 @_ZN3tsl17detail_robin_hash10robin_hashISt4pairIPvS3_ENS_9robin_mapIS3_S3_N8nanobind6detail8ptr_hashESt8equal_toIS3_ESaIS4_ELb0ENS_2rh26power_of_two_growth_policyILm2EEEE9KeySelectENSF_11ValueSelectES8_SA_SB_Lb0ESE_E5eraseIS3_EEmRKT_(ptr noundef nonnull align 8 dereferenceable(74) %0, ptr noundef nonnull align 8 dereferenceable(8) %1) #0 comdat align 2 {
  %3 = alloca ptr, align 8
  %4 = alloca ptr, align 8
  store ptr %0, ptr %3, align 8
  store ptr %1, ptr %4, align 8
  %5 = load ptr, ptr %3, align 8
  %6 = load ptr, ptr %4, align 8
  %7 = load ptr, ptr %4, align 8
  %8 = call noundef i64 @_ZNK3tsl17detail_robin_hash10robin_hashISt4pairIPvS3_ENS_9robin_mapIS3_S3_N8nanobind6detail8ptr_hashESt8equal_toIS3_ESaIS4_ELb0ENS_2rh26power_of_two_growth_policyILm2EEEE9KeySelectENSF_11ValueSelectES8_SA_SB_Lb0ESE_E8hash_keyIS3_EEmRKT_(ptr noundef nonnull align 8 dereferenceable(74) %5, ptr noundef nonnull align 8 dereferenceable(8) %7)
  %9 = call noundef i64 @_ZN3tsl17detail_robin_hash10robin_hashISt4pairIPvS3_ENS_9robin_mapIS3_S3_N8nanobind6detail8ptr_hashESt8equal_toIS3_ESaIS4_ELb0ENS_2rh26power_of_two_growth_policyILm2EEEE9KeySelectENSF_11ValueSelectES8_SA_SB_Lb0ESE_E5eraseIS3_EEmRKT_m(ptr noundef nonnull align 8 dereferenceable(74) %5, ptr noundef nonnull align 8 dereferenceable(8) %6, i64 noundef %8)
  ret i64 %9
}

; Function Attrs: inlinehint mustprogress uwtable
define internal void @_ZL11_Py_XDECREFP7_object(ptr noundef %0) #3 {
  %2 = alloca ptr, align 8
  store ptr %0, ptr %2, align 8
  %3 = load ptr, ptr %2, align 8
  %4 = icmp ne ptr %3, null
  br i1 %4, label %5, label %7

5:                                                ; preds = %1
  %6 = load ptr, ptr %2, align 8
  call void @_ZL10_Py_DECREFP7_object(ptr noundef %6)
  br label %7

7:                                                ; preds = %5, %1
  ret void
}

; Function Attrs: mustprogress uwtable
define linkonce_odr hidden noundef i64 @_ZN3tsl9robin_mapIPvS1_N8nanobind6detail8ptr_hashESt8equal_toIS1_ESaISt4pairIS1_S1_EELb0ENS_2rh26power_of_two_growth_policyILm2EEEE5eraseERKS1_(ptr noundef nonnull align 8 dereferenceable(80) %0, ptr noundef nonnull align 8 dereferenceable(8) %1) #0 comdat align 2 {
  %3 = alloca ptr, align 8
  %4 = alloca ptr, align 8
  store ptr %0, ptr %3, align 8
  store ptr %1, ptr %4, align 8
  %5 = load ptr, ptr %3, align 8
  %6 = getelementptr inbounds nuw %"class.tsl::robin_map", ptr %5, i32 0, i32 0
  %7 = load ptr, ptr %4, align 8
  %8 = call noundef i64 @_ZN3tsl17detail_robin_hash10robin_hashISt4pairIPvS3_ENS_9robin_mapIS3_S3_N8nanobind6detail8ptr_hashESt8equal_toIS3_ESaIS4_ELb0ENS_2rh26power_of_two_growth_policyILm2EEEE9KeySelectENSF_11ValueSelectES8_SA_SB_Lb0ESE_E5eraseIS3_EEmRKT_(ptr noundef nonnull align 8 dereferenceable(74) %6, ptr noundef nonnull align 8 dereferenceable(8) %7)
  ret i64 %8
}

; Function Attrs: alwaysinline mustprogress nounwind uwtable
define linkonce_odr hidden noundef ptr @_ZN8nanobind6detail12nb_func_dataEPv(ptr noundef %0) #2 comdat {
  %2 = alloca ptr, align 8
  store ptr %0, ptr %2, align 8
  %3 = load ptr, ptr %2, align 8
  %4 = getelementptr inbounds nuw i8, ptr %3, i64 40
  ret ptr %4
}

; Function Attrs: mustprogress uwtable
define hidden void @_ZN8nanobind6detail15nb_func_deallocEP7_object(ptr noundef %0) #0 {
  %2 = alloca ptr, align 8
  %3 = alloca i64, align 8
  %4 = alloca ptr, align 8
  %5 = alloca i64, align 8
  %6 = alloca ptr, align 8
  %7 = alloca i64, align 8
  %8 = alloca i32, align 4
  %9 = alloca i64, align 8
  %10 = alloca ptr, align 8
  store ptr %0, ptr %2, align 8
  %11 = load ptr, ptr %2, align 8
  call void @PyObject_GC_UnTrack(ptr noundef %11)
  call void @llvm.lifetime.start.p0(i64 8, ptr %3) #22
  %12 = load ptr, ptr %2, align 8
  %13 = getelementptr inbounds nuw %struct.PyVarObject, ptr %12, i32 0, i32 1
  %14 = load i64, ptr %13, align 8
  store i64 %14, ptr %3, align 8
  %15 = load i64, ptr %3, align 8
  %16 = icmp ne i64 %15, 0
  br i1 %16, label %17, label %116

17:                                               ; preds = %1
  call void @llvm.lifetime.start.p0(i64 8, ptr %4) #22
  %18 = load ptr, ptr %2, align 8
  %19 = call noundef ptr @_ZN8nanobind6detail12nb_func_dataEPv(ptr noundef %18)
  store ptr %19, ptr %4, align 8
  call void @llvm.lifetime.start.p0(i64 8, ptr %5) #22
  %20 = load ptr, ptr @_ZN8nanobind6detail9internalsE, align 8
  %21 = getelementptr inbounds nuw %"struct.nanobind::detail::nb_internals", ptr %20, i32 0, i32 13
  call void @llvm.lifetime.start.p0(i64 8, ptr %6) #22
  %22 = load ptr, ptr %2, align 8
  store ptr %22, ptr %6, align 8
  %23 = call noundef i64 @_ZN3tsl9robin_mapIPvS1_N8nanobind6detail8ptr_hashESt8equal_toIS1_ESaISt4pairIS1_S1_EELb0ENS_2rh26power_of_two_growth_policyILm2EEEE5eraseERKS1_(ptr noundef nonnull align 8 dereferenceable(80) %21, ptr noundef nonnull align 8 dereferenceable(8) %6)
  call void @llvm.lifetime.end.p0(i64 8, ptr %6) #22
  store i64 %23, ptr %5, align 8
  %24 = load i64, ptr %5, align 8
  %25 = icmp eq i64 %24, 1
  %26 = xor i1 %25, true
  %27 = zext i1 %26 to i64
  %28 = call i64 @llvm.expect.i64(i64 %27, i64 0)
  %29 = icmp ne i64 %28, 0
  br i1 %29, label %30, label %31

30:                                               ; preds = %17
  call void @_ZN8nanobind6detail16fail_unspecifiedEv() #24
  unreachable

31:                                               ; preds = %17
  call void @llvm.lifetime.start.p0(i64 8, ptr %7) #22
  store i64 0, ptr %7, align 8
  br label %32

32:                                               ; preds = %112, %31
  %33 = load i64, ptr %7, align 8
  %34 = load i64, ptr %3, align 8
  %35 = icmp ult i64 %33, %34
  br i1 %35, label %37, label %36

36:                                               ; preds = %32
  store i32 2, ptr %8, align 4
  call void @llvm.lifetime.end.p0(i64 8, ptr %7) #22
  br label %115

37:                                               ; preds = %32
  %38 = load ptr, ptr %4, align 8
  %39 = getelementptr inbounds nuw %"struct.nanobind::detail::func_data_prelim", ptr %38, i32 0, i32 5
  %40 = load i32, ptr %39, align 8
  %41 = and i32 %40, 16384
  %42 = icmp ne i32 %41, 0
  br i1 %42, label %43, label %50

43:                                               ; preds = %37
  %44 = load ptr, ptr %4, align 8
  %45 = getelementptr inbounds nuw %"struct.nanobind::detail::func_data_prelim", ptr %44, i32 0, i32 1
  %46 = load ptr, ptr %45, align 8
  %47 = load ptr, ptr %4, align 8
  %48 = getelementptr inbounds nuw %"struct.nanobind::detail::func_data_prelim", ptr %47, i32 0, i32 0
  %49 = getelementptr inbounds [3 x ptr], ptr %48, i64 0, i64 0
  call void %46(ptr noundef %49)
  br label %50

50:                                               ; preds = %43, %37
  %51 = load ptr, ptr %4, align 8
  %52 = getelementptr inbounds nuw %"struct.nanobind::detail::func_data_prelim", ptr %51, i32 0, i32 5
  %53 = load i32, ptr %52, align 8
  %54 = and i32 %53, 128
  %55 = icmp ne i32 %54, 0
  br i1 %55, label %56, label %84

56:                                               ; preds = %50
  call void @llvm.lifetime.start.p0(i64 8, ptr %9) #22
  store i64 0, ptr %9, align 8
  br label %57

57:                                               ; preds = %80, %56
  %58 = load i64, ptr %9, align 8
  %59 = load ptr, ptr %4, align 8
  %60 = getelementptr inbounds nuw %"struct.nanobind::detail::func_data_prelim", ptr %59, i32 0, i32 6
  %61 = load i16, ptr %60, align 4
  %62 = zext i16 %61 to i64
  %63 = icmp ult i64 %58, %62
  br i1 %63, label %65, label %64

64:                                               ; preds = %57
  store i32 5, ptr %8, align 4
  call void @llvm.lifetime.end.p0(i64 8, ptr %9) #22
  br label %83

65:                                               ; preds = %57
  call void @llvm.lifetime.start.p0(i64 8, ptr %10) #22
  %66 = load ptr, ptr %4, align 8
  %67 = getelementptr inbounds nuw %"struct.nanobind::detail::func_data", ptr %66, i32 0, i32 1
  %68 = load ptr, ptr %67, align 8
  %69 = load i64, ptr %9, align 8
  %70 = getelementptr inbounds nuw %"struct.nanobind::detail::arg_data", ptr %68, i64 %69
  store ptr %70, ptr %10, align 8
  %71 = load ptr, ptr %10, align 8
  %72 = getelementptr inbounds nuw %"struct.nanobind::detail::arg_data", ptr %71, i32 0, i32 3
  %73 = load ptr, ptr %72, align 8
  call void @_ZL11_Py_XDECREFP7_object(ptr noundef %73)
  %74 = load ptr, ptr %10, align 8
  %75 = getelementptr inbounds nuw %"struct.nanobind::detail::arg_data", ptr %74, i32 0, i32 2
  %76 = load ptr, ptr %75, align 8
  call void @_ZL11_Py_XDECREFP7_object(ptr noundef %76)
  %77 = load ptr, ptr %10, align 8
  %78 = getelementptr inbounds nuw %"struct.nanobind::detail::arg_data", ptr %77, i32 0, i32 1
  %79 = load ptr, ptr %78, align 8
  call void @free(ptr noundef %79) #22
  call void @llvm.lifetime.end.p0(i64 8, ptr %10) #22
  br label %80

80:                                               ; preds = %65
  %81 = load i64, ptr %9, align 8
  %82 = add i64 %81, 1
  store i64 %82, ptr %9, align 8
  br label %57, !llvm.loop !8

83:                                               ; preds = %64
  br label %84

84:                                               ; preds = %83, %50
  %85 = load ptr, ptr %4, align 8
  %86 = getelementptr inbounds nuw %"struct.nanobind::detail::func_data_prelim", ptr %85, i32 0, i32 5
  %87 = load i32, ptr %86, align 8
  %88 = and i32 %87, 64
  %89 = icmp ne i32 %88, 0
  br i1 %89, label %90, label %94

90:                                               ; preds = %84
  %91 = load ptr, ptr %4, align 8
  %92 = getelementptr inbounds nuw %"struct.nanobind::detail::func_data_prelim", ptr %91, i32 0, i32 9
  %93 = load ptr, ptr %92, align 8
  call void @free(ptr noundef %93) #22
  br label %94

94:                                               ; preds = %90, %84
  %95 = load ptr, ptr %4, align 8
  %96 = getelementptr inbounds nuw %"struct.nanobind::detail::func_data_prelim", ptr %95, i32 0, i32 8
  %97 = load ptr, ptr %96, align 8
  call void @free(ptr noundef %97) #22
  %98 = load ptr, ptr %4, align 8
  %99 = getelementptr inbounds nuw %"struct.nanobind::detail::func_data", ptr %98, i32 0, i32 1
  %100 = load ptr, ptr %99, align 8
  call void @free(ptr noundef %100) #22
  %101 = load ptr, ptr %4, align 8
  %102 = getelementptr inbounds nuw %"struct.nanobind::detail::func_data_prelim", ptr %101, i32 0, i32 3
  %103 = load ptr, ptr %102, align 8
  call void @free(ptr noundef %103) #22
  %104 = load ptr, ptr %4, align 8
  %105 = getelementptr inbounds nuw %"struct.nanobind::detail::func_data_prelim", ptr %104, i32 0, i32 4
  %106 = load ptr, ptr %105, align 8
  call void @free(ptr noundef %106) #22
  %107 = load ptr, ptr %4, align 8
  %108 = getelementptr inbounds nuw %"struct.nanobind::detail::func_data", ptr %107, i32 0, i32 2
  %109 = load ptr, ptr %108, align 8
  call void @free(ptr noundef %109) #22
  %110 = load ptr, ptr %4, align 8
  %111 = getelementptr inbounds nuw %"struct.nanobind::detail::func_data", ptr %110, i32 1
  store ptr %111, ptr %4, align 8
  br label %112

112:                                              ; preds = %94
  %113 = load i64, ptr %7, align 8
  %114 = add i64 %113, 1
  store i64 %114, ptr %7, align 8
  br label %32, !llvm.loop !9

115:                                              ; preds = %36
  call void @llvm.lifetime.end.p0(i64 8, ptr %5) #22
  call void @llvm.lifetime.end.p0(i64 8, ptr %4) #22
  br label %116

116:                                              ; preds = %115, %1
  %117 = load ptr, ptr %2, align 8
  call void @PyObject_GC_Del(ptr noundef %117)
  call void @llvm.lifetime.end.p0(i64 8, ptr %3) #22
  ret void
}