; Function Attrs: mustprogress uwtable
define hidden void @_ZN8nanobind6detail15nb_func_deallocEP7_object(ptr noundef %0) local_unnamed_addr #0 {
  %2 = alloca ptr, align 8
  tail call void @PyObject_GC_UnTrack(ptr noundef %0)
  %3 = getelementptr inbounds nuw i8, ptr %0, i64 16
  %4 = load i64, ptr %3, align 8
  %.not = icmp eq i64 %4, 0
  br i1 %.not, label %.loopexit40, label %5

5:                                                ; preds = %1
  %6 = load ptr, ptr @_ZN8nanobind6detail9internalsE, align 8
  %7 = getelementptr inbounds nuw i8, ptr %6, i64 400
  call void @llvm.lifetime.start.p0(i64 8, ptr nonnull %2) #25
  store ptr %0, ptr %2, align 8
  %8 = ptrtoint ptr %0 to i64
  %9 = lshr i64 %8, 33
  %10 = xor i64 %9, %8
  %11 = mul i64 %10, -49064778989728563
  %12 = lshr i64 %11, 33
  %13 = xor i64 %12, %11
  %14 = mul i64 %13, -4265267296055464877
  %15 = lshr i64 %14, 33
  %16 = xor i64 %15, %14
  %17 = call noundef i64 @_ZN3tsl17detail_robin_hash10robin_hashISt4pairIPvS3_ENS_9robin_mapIS3_S3_N8nanobind6detail8ptr_hashESt8equal_toIS3_ESaIS4_ELb0ENS_2rh26power_of_two_growth_policyILm2EEEE9KeySelectENSF_11ValueSelectES8_SA_SB_Lb0ESE_E5eraseIS3_EEmRKT_m(ptr noundef nonnull align 8 dereferenceable(80) %7, ptr noundef nonnull align 8 dereferenceable(8) %2, i64 noundef %16)
  call void @llvm.lifetime.end.p0(i64 8, ptr nonnull %2) #25
  %.not32 = icmp eq i64 %17, 1
  br i1 %.not32, label %.preheader39.preheader, label %19, !prof !8

.preheader39.preheader:                           ; preds = %5
  %18 = getelementptr inbounds nuw i8, ptr %0, i64 40
  br label %.preheader39

19:                                               ; preds = %5
  call void @_ZN8nanobind6detail16fail_unspecifiedEv() #26
  unreachable

.preheader39:                                     ; preds = %.preheader39.preheader, %58
  %.043 = phi ptr [ %69, %58 ], [ %18, %.preheader39.preheader ]
  %.03042 = phi i64 [ %70, %58 ], [ 0, %.preheader39.preheader ]
  %20 = getelementptr inbounds nuw i8, ptr %.043, i64 56
  %21 = load i32, ptr %20, align 8
  %22 = and i32 %21, 16384
  %.not33 = icmp eq i32 %22, 0
  br i1 %.not33, label %26, label %23

23:                                               ; preds = %.preheader39
  %24 = getelementptr inbounds nuw i8, ptr %.043, i64 24
  %25 = load ptr, ptr %24, align 8
  call void %25(ptr noundef nonnull %.043)
  %.pre = load i32, ptr %20, align 8
  br label %26

26:                                               ; preds = %23, %.preheader39
  %27 = phi i32 [ %.pre, %23 ], [ %21, %.preheader39 ]
  %28 = and i32 %27, 128
  %.not34 = icmp eq i32 %28, 0
  br i1 %.not34, label %.loopexit, label %.preheader

.preheader:                                       ; preds = %26
  %29 = getelementptr inbounds nuw i8, ptr %.043, i64 60
  %30 = load i16, ptr %29, align 4
  %.not45 = icmp eq i16 %30, 0
  br i1 %.not45, label %.loopexit, label %.lr.ph

.lr.ph:                                           ; preds = %.preheader
  %31 = getelementptr inbounds nuw i8, ptr %.043, i64 88
  br label %32

32:                                               ; preds = %.lr.ph, %_ZL11_Py_XDECREFP7_object.exit38
  %.02941 = phi i64 [ 0, %.lr.ph ], [ %49, %_ZL11_Py_XDECREFP7_object.exit38 ]
  %33 = load ptr, ptr %31, align 8
  %34 = getelementptr inbounds nuw %"struct.nanobind::detail::arg_data", ptr %33, i64 %.02941
  %35 = getelementptr inbounds nuw i8, ptr %34, i64 24
  %36 = load ptr, ptr %35, align 8
  %.not.i = icmp eq ptr %36, null
  br i1 %.not.i, label %_ZL11_Py_XDECREFP7_object.exit, label %37

37:                                               ; preds = %32
  %38 = load i64, ptr %36, align 8
  %39 = add nsw i64 %38, -1
  store i64 %39, ptr %36, align 8
  %.not.i.i = icmp eq i64 %39, 0
  br i1 %.not.i.i, label %40, label %_ZL11_Py_XDECREFP7_object.exit

40:                                               ; preds = %37
  call void @_Py_Dealloc(ptr noundef nonnull %36)
  br label %_ZL11_Py_XDECREFP7_object.exit

_ZL11_Py_XDECREFP7_object.exit:                   ; preds = %32, %37, %40
  %41 = getelementptr inbounds nuw i8, ptr %34, i64 16
  %42 = load ptr, ptr %41, align 8
  %.not.i36 = icmp eq ptr %42, null
  br i1 %.not.i36, label %_ZL11_Py_XDECREFP7_object.exit38, label %43

43:                                               ; preds = %_ZL11_Py_XDECREFP7_object.exit
  %44 = load i64, ptr %42, align 8
  %45 = add nsw i64 %44, -1
  store i64 %45, ptr %42, align 8
  %.not.i.i37 = icmp eq i64 %45, 0
  br i1 %.not.i.i37, label %46, label %_ZL11_Py_XDECREFP7_object.exit38

46:                                               ; preds = %43
  call void @_Py_Dealloc(ptr noundef nonnull %42)
  br label %_ZL11_Py_XDECREFP7_object.exit38

_ZL11_Py_XDECREFP7_object.exit38:                 ; preds = %_ZL11_Py_XDECREFP7_object.exit, %43, %46
  %47 = getelementptr inbounds nuw i8, ptr %34, i64 8
  %48 = load ptr, ptr %47, align 8
  call void @free(ptr noundef %48) #25
  %49 = add nuw nsw i64 %.02941, 1
  %50 = load i16, ptr %29, align 4
  %51 = zext i16 %50 to i64
  %52 = icmp samesign ult i64 %49, %51
  br i1 %52, label %32, label %.loopexit.loopexit, !llvm.loop !9

.loopexit.loopexit:                               ; preds = %_ZL11_Py_XDECREFP7_object.exit38
  %.pre46 = load i32, ptr %20, align 8
  br label %.loopexit

.loopexit:                                        ; preds = %.loopexit.loopexit, %.preheader, %26
  %53 = phi i32 [ %.pre46, %.loopexit.loopexit ], [ %27, %.preheader ], [ %27, %26 ]
  %54 = and i32 %53, 64
  %.not35 = icmp eq i32 %54, 0
  br i1 %.not35, label %58, label %55

55:                                               ; preds = %.loopexit
  %56 = getelementptr inbounds nuw i8, ptr %.043, i64 72
  %57 = load ptr, ptr %56, align 8
  call void @free(ptr noundef %57) #25
  br label %58

58:                                               ; preds = %55, %.loopexit
  %59 = getelementptr inbounds nuw i8, ptr %.043, i64 64
  %60 = load ptr, ptr %59, align 8
  call void @free(ptr noundef %60) #25
  %61 = getelementptr inbounds nuw i8, ptr %.043, i64 88
  %62 = load ptr, ptr %61, align 8
  call void @free(ptr noundef %62) #25
  %63 = getelementptr inbounds nuw i8, ptr %.043, i64 40
  %64 = load ptr, ptr %63, align 8
  call void @free(ptr noundef %64) #25
  %65 = getelementptr inbounds nuw i8, ptr %.043, i64 48
  %66 = load ptr, ptr %65, align 8
  call void @free(ptr noundef %66) #25
  %67 = getelementptr inbounds nuw i8, ptr %.043, i64 96
  %68 = load ptr, ptr %67, align 8
  call void @free(ptr noundef %68) #25
  %69 = getelementptr inbounds nuw i8, ptr %.043, i64 104
  %70 = add nuw i64 %.03042, 1
  %exitcond.not = icmp eq i64 %70, %4
  br i1 %exitcond.not, label %.loopexit40, label %.preheader39, !llvm.loop !10

.loopexit40:                                      ; preds = %58, %1
  call void @PyObject_GC_Del(ptr noundef %0)
  ret void
}